target datalayout = "e-m:e-p270:32:32-p271:32:32-p272:64:64-i64:64-i128:128-f80:128-n8:16:32:64-S128"
target triple = "x86_64-pc-linux-gnu"

%"class.cvc5::internal::NodeTemplate" = type { ptr }
%"class.cvc5::internal::theory::quantifiers::TermTupleEnumeratorBase" = type { %"class.cvc5::internal::theory::quantifiers::TermTupleEnumeratorInterface", %"class.cvc5::internal::NodeTemplate", i64, ptr, %"class.std::vector.0", %"class.std::vector.5", %"class.std::vector.5", i32, %"class.cvc5::internal::theory::quantifiers::IndexTrie", i64, i64, i8, i64 }
%"class.cvc5::internal::theory::quantifiers::TermTupleEnumeratorInterface" = type { ptr }
%"class.std::vector.0" = type { %"struct.std::_Vector_base.1" }
%"struct.std::_Vector_base.1" = type { %"struct.std::_Vector_base<cvc5::internal::TypeNode, std::allocator<cvc5::internal::TypeNode>>::_Vector_impl" }
%"struct.std::_Vector_base<cvc5::internal::TypeNode, std::allocator<cvc5::internal::TypeNode>>::_Vector_impl" = type { %"struct.std::_Vector_base<cvc5::internal::TypeNode, std::allocator<cvc5::internal::TypeNode>>::_Vector_impl_data" }
%"struct.std::_Vector_base<cvc5::internal::TypeNode, std::allocator<cvc5::internal::TypeNode>>::_Vector_impl_data" = type { ptr, ptr, ptr }
%"class.std::vector.5" = type { %"struct.std::_Vector_base.6" }
%"struct.std::_Vector_base.6" = type { %"struct.std::_Vector_base<unsigned long, std::allocator<unsigned long>>::_Vector_impl" }
%"struct.std::_Vector_base<unsigned long, std::allocator<unsigned long>>::_Vector_impl" = type { %"struct.std::_Vector_base<unsigned long, std::allocator<unsigned long>>::_Vector_impl_data" }
%"struct.std::_Vector_base<unsigned long, std::allocator<unsigned long>>::_Vector_impl_data" = type { ptr, ptr, ptr }
%"class.cvc5::internal::theory::quantifiers::IndexTrie" = type { ptr, i8, ptr }
%"struct.cvc5::internal::theory::quantifiers::TermTupleEnumeratorEnv" = type { i8, i8, ptr }

; Function Attrs: inlinehint mustprogress nounwind uwtable
define linkonce_odr noundef nonnull align 8 dereferenceable(8) ptr @_ZSt3minImERKT_S2_S2_(ptr noundef nonnull align 8 dereferenceable(8) %0, ptr noundef nonnull align 8 dereferenceable(8) %1) #6 comdat {
  %3 = alloca ptr, align 8
  %4 = alloca ptr, align 8
  %5 = alloca ptr, align 8
  store ptr %0, ptr %4, align 8, !tbaa !81
  store ptr %1, ptr %5, align 8, !tbaa !81
  %6 = load ptr, ptr %5, align 8, !tbaa !81
  %7 = load i64, ptr %6, align 8, !tbaa !37
  %8 = load ptr, ptr %4, align 8, !tbaa !81
  %9 = load i64, ptr %8, align 8, !tbaa !37
  %10 = icmp ult i64 %7, %9
  br i1 %10, label %11, label %13

11:                                               ; preds = %2
  %12 = load ptr, ptr %5, align 8, !tbaa !81
  store ptr %12, ptr %3, align 8
  br label %15

13:                                               ; preds = %2
  %14 = load ptr, ptr %4, align 8, !tbaa !81
  store ptr %14, ptr %3, align 8
  br label %15

15:                                               ; preds = %13, %11
  %16 = load ptr, ptr %3, align 8
  ret ptr %16
}

; Function Attrs: mustprogress nounwind uwtable
define linkonce_odr hidden noundef nonnull align 8 dereferenceable(8) ptr @_ZNSt6vectorImSaImEEixEm(ptr noundef nonnull align 8 dereferenceable(24) %0, i64 noundef %1) #9 comdat align 2 {
  %3 = alloca ptr, align 8
  %4 = alloca i64, align 8
  store ptr %0, ptr %3, align 8, !tbaa !85
  store i64 %1, ptr %4, align 8, !tbaa !37
  %5 = load ptr, ptr %3, align 8
  %6 = getelementptr inbounds nuw %"struct.std::_Vector_base.6", ptr %5, i32 0, i32 0
  %7 = getelementptr inbounds nuw %"struct.std::_Vector_base<unsigned long, std::allocator<unsigned long>>::_Vector_impl_data", ptr %6, i32 0, i32 0
  %8 = load ptr, ptr %7, align 8, !tbaa !90
  %9 = load i64, ptr %4, align 8, !tbaa !37
  %10 = getelementptr inbounds nuw i64, ptr %8, i64 %9
  ret ptr %10
}

; Function Attrs: mustprogress nounwind uwtable
define linkonce_odr hidden noundef i64 @_ZNKSt6vectorImSaImEE4sizeEv(ptr noundef nonnull align 8 dereferenceable(24) %0) #9 comdat align 2 {
  %2 = alloca ptr, align 8
  store ptr %0, ptr %2, align 8, !tbaa !85
  %3 = load ptr, ptr %2, align 8
  %4 = getelementptr inbounds nuw %"struct.std::_Vector_base.6", ptr %3, i32 0, i32 0
  %5 = getelementptr inbounds nuw %"struct.std::_Vector_base<unsigned long, std::allocator<unsigned long>>::_Vector_impl_data", ptr %4, i32 0, i32 1
  %6 = load ptr, ptr %5, align 8, !tbaa !87
  %7 = getelementptr inbounds nuw %"struct.std::_Vector_base.6", ptr %3, i32 0, i32 0
  %8 = getelementptr inbounds nuw %"struct.std::_Vector_base<unsigned long, std::allocator<unsigned long>>::_Vector_impl_data", ptr %7, i32 0, i32 0
  %9 = load ptr, ptr %8, align 8, !tbaa !90
  %10 = ptrtoint ptr %6 to i64
  %11 = ptrtoint ptr %9 to i64
  %12 = sub i64 %10, %11
  %13 = sdiv exact i64 %12, 8
  ret i64 %13
}

; Function Attrs: mustprogress uwtable
define hidden noundef zeroext i1 @_ZN4cvc58internal6theory11quantifiers23TermTupleEnumeratorBase18nextCombinationSumEv(ptr noundef nonnull align 8 dereferenceable(168) %0) #4 align 2 {
  %2 = alloca i1, align 1
  %3 = alloca ptr, align 8
  %4 = alloca i64, align 8
  %5 = alloca i8, align 1
  %6 = alloca i64, align 8
  %7 = alloca i64, align 8
  %8 = alloca i32, align 4
  %9 = alloca i64, align 8
  %10 = alloca i64, align 8
  store ptr %0, ptr %3, align 8, !tbaa !3
  %11 = load ptr, ptr %3, align 8
  call void @llvm.lifetime.start.p0(i64 8, ptr %4) #3
  store i64 0, ptr %4, align 8, !tbaa !37
  call void @llvm.lifetime.start.p0(i64 1, ptr %5) #3
  store i8 0, ptr %5, align 1, !tbaa !11
  call void @llvm.lifetime.start.p0(i64 8, ptr %6) #3
  %12 = getelementptr inbounds nuw %"class.cvc5::internal::theory::quantifiers::TermTupleEnumeratorBase", ptr %11, i32 0, i32 6
  %13 = call noundef i64 @_ZNKSt6vectorImSaImEE4sizeEv(ptr noundef nonnull align 8 dereferenceable(24) %12) #3
  store i64 %13, ptr %6, align 8, !tbaa !37
  br label %14

14:                                               ; preds = %60, %1
  %15 = load i64, ptr %6, align 8, !tbaa !37
  %16 = add i64 %15, -1
  store i64 %16, ptr %6, align 8, !tbaa !37
  %17 = icmp ne i64 %15, 0
  br i1 %17, label %18, label %61

18:                                               ; preds = %14
  call void @llvm.lifetime.start.p0(i64 8, ptr %7) #3
  %19 = getelementptr inbounds nuw %"class.cvc5::internal::theory::quantifiers::TermTupleEnumeratorBase", ptr %11, i32 0, i32 6
  %20 = load i64, ptr %6, align 8, !tbaa !37
  %21 = call noundef nonnull align 8 dereferenceable(8) ptr @_ZNSt6vectorImSaImEEixEm(ptr noundef nonnull align 8 dereferenceable(24) %19, i64 noundef %20) #3
  %22 = load i64, ptr %21, align 8, !tbaa !37
  %23 = add i64 %22, 1
  store i64 %23, ptr %7, align 8, !tbaa !37
  %24 = load i64, ptr %4, align 8, !tbaa !37
  %25 = icmp ugt i64 %24, 0
  br i1 %25, label %26, label %38

26:                                               ; preds = %18
  %27 = load i64, ptr %7, align 8, !tbaa !37
  %28 = getelementptr inbounds nuw %"class.cvc5::internal::theory::quantifiers::TermTupleEnumeratorBase", ptr %11, i32 0, i32 5
  %29 = load i64, ptr %6, align 8, !tbaa !37
  %30 = call noundef nonnull align 8 dereferenceable(8) ptr @_ZNSt6vectorImSaImEEixEm(ptr noundef nonnull align 8 dereferenceable(24) %28, i64 noundef %29) #3
  %31 = load i64, ptr %30, align 8, !tbaa !37
  %32 = icmp ult i64 %27, %31
  br i1 %32, label %33, label %38

33:                                               ; preds = %26
  %34 = load i64, ptr %6, align 8, !tbaa !37
  %35 = getelementptr inbounds nuw %"class.cvc5::internal::theory::quantifiers::TermTupleEnumeratorBase", ptr %11, i32 0, i32 12
  %36 = load i64, ptr %35, align 8, !tbaa !97
  %37 = icmp ult i64 %34, %36
  br label %38

38:                                               ; preds = %33, %26, %18
  %39 = phi i1 [ false, %26 ], [ false, %18 ], [ %37, %33 ]
  %40 = zext i1 %39 to i8
  store i8 %40, ptr %5, align 1, !tbaa !11
  %41 = load i8, ptr %5, align 1, !tbaa !11, !range !44, !noundef !45
  %42 = trunc i8 %41 to i1
  br i1 %42, label %43, label %48

43:                                               ; preds = %38
  %44 = load i64, ptr %7, align 8, !tbaa !37
  %45 = getelementptr inbounds nuw %"class.cvc5::internal::theory::quantifiers::TermTupleEnumeratorBase", ptr %11, i32 0, i32 6
  %46 = load i64, ptr %6, align 8, !tbaa !37
  %47 = call noundef nonnull align 8 dereferenceable(8) ptr @_ZNSt6vectorImSaImEEixEm(ptr noundef nonnull align 8 dereferenceable(24) %45, i64 noundef %46) #3
  store i64 %44, ptr %47, align 8, !tbaa !37
  store i32 3, ptr %8, align 4
  br label %58

48:                                               ; preds = %38
  %49 = getelementptr inbounds nuw %"class.cvc5::internal::theory::quantifiers::TermTupleEnumeratorBase", ptr %11, i32 0, i32 6
  %50 = load i64, ptr %6, align 8, !tbaa !37
  %51 = call noundef nonnull align 8 dereferenceable(8) ptr @_ZNSt6vectorImSaImEEixEm(ptr noundef nonnull align 8 dereferenceable(24) %49, i64 noundef %50) #3
  %52 = load i64, ptr %51, align 8, !tbaa !37
  %53 = load i64, ptr %4, align 8, !tbaa !37
  %54 = add i64 %53, %52
  store i64 %54, ptr %4, align 8, !tbaa !37
  %55 = getelementptr inbounds nuw %"class.cvc5::internal::theory::quantifiers::TermTupleEnumeratorBase", ptr %11, i32 0, i32 6
  %56 = load i64, ptr %6, align 8, !tbaa !37
  %57 = call noundef nonnull align 8 dereferenceable(8) ptr @_ZNSt6vectorImSaImEEixEm(ptr noundef nonnull align 8 dereferenceable(24) %55, i64 noundef %56) #3
  store i64 0, ptr %57, align 8, !tbaa !37
  store i32 0, ptr %8, align 4
  br label %58

58:                                               ; preds = %48, %43
  call void @llvm.lifetime.end.p0(i64 8, ptr %7) #3
  %59 = load i32, ptr %8, align 4
  switch i32 %59, label %109 [
    i32 0, label %60
    i32 3, label %61
  ]

60:                                               ; preds = %58
  br label %14, !llvm.loop !122

61:                                               ; preds = %58, %14
  %62 = load i8, ptr %5, align 1, !tbaa !11, !range !44, !noundef !45
  %63 = trunc i8 %62 to i1
  br i1 %63, label %65, label %64

64:                                               ; preds = %61
  store i1 false, ptr %2, align 1
  store i32 1, ptr %8, align 4
  br label %107

65:                                               ; preds = %61
  %66 = load i64, ptr %4, align 8, !tbaa !37
  %67 = add i64 %66, -1
  store i64 %67, ptr %4, align 8, !tbaa !37
  call void @llvm.lifetime.start.p0(i64 8, ptr %9) #3
  %68 = getelementptr inbounds nuw %"class.cvc5::internal::theory::quantifiers::TermTupleEnumeratorBase", ptr %11, i32 0, i32 6
  %69 = call noundef i64 @_ZNKSt6vectorImSaImEE4sizeEv(ptr noundef nonnull align 8 dereferenceable(24) %68) #3
  store i64 %69, ptr %9, align 8, !tbaa !37
  br label %70

70:                                               ; preds = %93, %65
  %71 = load i64, ptr %4, align 8, !tbaa !37
  %72 = icmp ugt i64 %71, 0
  br i1 %72, label %73, label %77

73:                                               ; preds = %70
  %74 = load i64, ptr %9, align 8, !tbaa !37
  %75 = add i64 %74, -1
  store i64 %75, ptr %9, align 8, !tbaa !37
  %76 = icmp ne i64 %74, 0
  br label %77

77:                                               ; preds = %73, %70
  %78 = phi i1 [ false, %70 ], [ %76, %73 ]
  br i1 %78, label %80, label %79

79:                                               ; preds = %77
  store i32 4, ptr %8, align 4
  call void @llvm.lifetime.end.p0(i64 8, ptr %9) #3
  br label %106

80:                                               ; preds = %77
  call void @llvm.lifetime.start.p0(i64 8, ptr %10) #3
  %81 = getelementptr inbounds nuw %"class.cvc5::internal::theory::quantifiers::TermTupleEnumeratorBase", ptr %11, i32 0, i32 5
  %82 = load i64, ptr %9, align 8, !tbaa !37
  %83 = call noundef nonnull align 8 dereferenceable(8) ptr @_ZNSt6vectorImSaImEEixEm(ptr noundef nonnull align 8 dereferenceable(24) %81, i64 noundef %82) #3
  %84 = load i64, ptr %83, align 8, !tbaa !37
  %85 = icmp ne i64 %84, 0
  br i1 %85, label %86, label %92

86:                                               ; preds = %80
  %87 = getelementptr inbounds nuw %"class.cvc5::internal::theory::quantifiers::TermTupleEnumeratorBase", ptr %11, i32 0, i32 5
  %88 = load i64, ptr %9, align 8, !tbaa !37
  %89 = call noundef nonnull align 8 dereferenceable(8) ptr @_ZNSt6vectorImSaImEEixEm(ptr noundef nonnull align 8 dereferenceable(24) %87, i64 noundef %88) #3
  %90 = load i64, ptr %89, align 8, !tbaa !37
  %91 = sub i64 %90, 1
  br label %93

92:                                               ; preds = %80
  br label %93

93:                                               ; preds = %92, %86
  %94 = phi i64 [ %91, %86 ], [ 0, %92 ]
  store i64 %94, ptr %10, align 8, !tbaa !37
  %95 = call noundef nonnull align 8 dereferenceable(8) ptr @_ZSt3minImERKT_S2_S2_(ptr noundef nonnull align 8 dereferenceable(8) %4, ptr noundef nonnull align 8 dereferenceable(8) %10)
  %96 = load i64, ptr %95, align 8, !tbaa !37
  %97 = getelementptr inbounds nuw %"class.cvc5::internal::theory::quantifiers::TermTupleEnumeratorBase", ptr %11, i32 0, i32 6
  %98 = load i64, ptr %9, align 8, !tbaa !37
  %99 = call noundef nonnull align 8 dereferenceable(8) ptr @_ZNSt6vectorImSaImEEixEm(ptr noundef nonnull align 8 dereferenceable(24) %97, i64 noundef %98) #3
  store i64 %96, ptr %99, align 8, !tbaa !37
  %100 = getelementptr inbounds nuw %"class.cvc5::internal::theory::quantifiers::TermTupleEnumeratorBase", ptr %11, i32 0, i32 6
  %101 = load i64, ptr %9, align 8, !tbaa !37
  %102 = call noundef nonnull align 8 dereferenceable(8) ptr @_ZNSt6vectorImSaImEEixEm(ptr noundef nonnull align 8 dereferenceable(24) %100, i64 noundef %101) #3
  %103 = load i64, ptr %102, align 8, !tbaa !37
  %104 = load i64, ptr %4, align 8, !tbaa !37
  %105 = sub i64 %104, %103
  store i64 %105, ptr %4, align 8, !tbaa !37
  call void @llvm.lifetime.end.p0(i64 8, ptr %10) #3
  br label %70, !llvm.loop !123

106:                                              ; preds = %79
  store i1 true, ptr %2, align 1
  store i32 1, ptr %8, align 4
  br label %107

107:                                              ; preds = %106, %64
  call void @llvm.lifetime.end.p0(i64 8, ptr %6) #3
  call void @llvm.lifetime.end.p0(i64 1, ptr %5) #3
  call void @llvm.lifetime.end.p0(i64 8, ptr %4) #3
  %108 = load i1, ptr %2, align 1
  ret i1 %108

109:                                              ; preds = %58
  unreachable
}

; Function Attrs: mustprogress uwtable
define hidden noundef zeroext i1 @_ZN4cvc58internal6theory11quantifiers23TermTupleEnumeratorBase23nextCombinationInternalEv(ptr noundef nonnull align 8 dereferenceable(168) %0) #4 align 2 {
  %2 = alloca ptr, align 8
  store ptr %0, ptr %2, align 8, !tbaa !3
  %3 = load ptr, ptr %2, align 8
  %4 = getelementptr inbounds nuw %"class.cvc5::internal::theory::quantifiers::TermTupleEnumeratorBase", ptr %3, i32 0, i32 3
  %5 = load ptr, ptr %4, align 8, !tbaa !40
  %6 = getelementptr inbounds nuw %"struct.cvc5::internal::theory::quantifiers::TermTupleEnumeratorEnv", ptr %5, i32 0, i32 1
  %7 = load i8, ptr %6, align 1, !tbaa !113, !range !44, !noundef !45
  %8 = trunc i8 %7 to i1
  br i1 %8, label %9, label %11

9:                                                ; preds = %1
  %10 = call noundef zeroext i1 @_ZN4cvc58internal6theory11quantifiers23TermTupleEnumeratorBase18nextCombinationSumEv(ptr noundef nonnull align 8 dereferenceable(168) %3)
  br label %13

11:                                               ; preds = %1
  %12 = call noundef zeroext i1 @_ZN4cvc58internal6theory11quantifiers23TermTupleEnumeratorBase18nextCombinationMaxEv(ptr noundef nonnull align 8 dereferenceable(168) %3)
  br label %13

13:                                               ; preds = %11, %9
  %14 = phi i1 [ %10, %9 ], [ %12, %11 ]
  ret i1 %14
}