; Function Attrs: mustprogress nofree norecurse nosync nounwind memory(readwrite, inaccessiblemem: none) uwtable
define hidden noundef zeroext i1 @_ZN4cvc58internal6theory11quantifiers23TermTupleEnumeratorBase23nextCombinationInternalEv(ptr noundef nonnull readonly align 8 captures(none) dereferenceable(168) %0) local_unnamed_addr #7 align 2 {
  %2 = getelementptr inbounds nuw i8, ptr %0, i64 24
  %3 = load ptr, ptr %2, align 8, !tbaa !46
  %4 = getelementptr inbounds nuw i8, ptr %3, i64 1
  %5 = load i8, ptr %4, align 1, !tbaa !68, !range !50, !noundef !51
  %6 = trunc nuw i8 %5 to i1
  br i1 %6, label %7, label %38

7:                                                ; preds = %1
  %8 = getelementptr inbounds nuw i8, ptr %0, i64 80
  %9 = getelementptr inbounds nuw i8, ptr %0, i64 88
  %10 = load ptr, ptr %9, align 8, !tbaa !52
  %11 = load ptr, ptr %8, align 8, !tbaa !55
  %12 = ptrtoint ptr %10 to i64
  %13 = ptrtoint ptr %11 to i64
  %14 = sub i64 %12, %13
  %15 = ashr exact i64 %14, 3
  %.not52.not.i = icmp eq ptr %10, %11
  br i1 %.not52.not.i, label %_ZN4cvc58internal6theory11quantifiers23TermTupleEnumeratorBase18nextCombinationSumEv.exit, label %.lr.ph.i

.lr.ph.i:                                         ; preds = %7
  %16 = getelementptr inbounds nuw i8, ptr %0, i64 56
  %17 = load ptr, ptr %16, align 8
  %18 = getelementptr inbounds nuw i8, ptr %0, i64 160
  br label %19

19:                                               ; preds = %.thread.i, %.lr.ph.i
  %.in.i = phi i64 [ %15, %.lr.ph.i ], [ %20, %.thread.i ]
  %.03453.i = phi i64 [ 0, %.lr.ph.i ], [ %30, %.thread.i ]
  %20 = add i64 %.in.i, -1
  %21 = getelementptr inbounds nuw i64, ptr %11, i64 %20
  %22 = load i64, ptr %21, align 8, !tbaa !54
  %.not22.i = icmp eq i64 %.03453.i, 0
  br i1 %.not22.i, label %.thread.i, label %23

23:                                               ; preds = %19
  %24 = add i64 %22, 1
  %25 = getelementptr inbounds nuw i64, ptr %17, i64 %20
  %26 = load i64, ptr %25, align 8, !tbaa !54
  %27 = icmp ult i64 %24, %26
  %28 = load i64, ptr %18, align 8
  %29 = icmp ult i64 %20, %28
  %or.cond.i = select i1 %27, i1 %29, i1 false
  br i1 %or.cond.i, label %31, label %.thread.i

.thread.i:                                        ; preds = %23, %19
  %30 = add i64 %22, %.03453.i
  store i64 0, ptr %21, align 8, !tbaa !54
  %.not.not.i = icmp eq i64 %20, 0
  br i1 %.not.not.i, label %_ZN4cvc58internal6theory11quantifiers23TermTupleEnumeratorBase18nextCombinationSumEv.exit, label %19

31:                                               ; preds = %23
  store i64 %24, ptr %21, align 8, !tbaa !54
  %32 = add i64 %.03453.i, -1
  %.not2355.i = icmp eq i64 %32, 0
  br i1 %.not2355.i, label %_ZN4cvc58internal6theory11quantifiers23TermTupleEnumeratorBase18nextCombinationSumEv.exit, label %.lr.ph58.i

.lr.ph58.i:                                       ; preds = %31, %.lr.ph58.i
  %.057.i = phi i64 [ %33, %.lr.ph58.i ], [ %15, %31 ]
  %.356.i = phi i64 [ %37, %.lr.ph58.i ], [ %32, %31 ]
  %33 = add i64 %.057.i, -1
  %34 = getelementptr inbounds nuw i64, ptr %17, i64 %33
  %35 = load i64, ptr %34, align 8, !tbaa !54
  %spec.select.i = tail call i64 @llvm.usub.sat.i64(i64 %35, i64 1)
  %.sroa.speculated.i = tail call i64 @llvm.umin.i64(i64 %spec.select.i, i64 %.356.i)
  %36 = getelementptr inbounds nuw i64, ptr %11, i64 %33
  store i64 %.sroa.speculated.i, ptr %36, align 8, !tbaa !54
  %37 = sub i64 %.356.i, %.sroa.speculated.i
  %.not23.i = icmp eq i64 %37, 0
  %.not24.i = icmp eq i64 %33, 0
  %or.cond46.i = or i1 %.not24.i, %.not23.i
  br i1 %or.cond46.i, label %_ZN4cvc58internal6theory11quantifiers23TermTupleEnumeratorBase18nextCombinationSumEv.exit, label %.lr.ph58.i, !llvm.loop !70

38:                                               ; preds = %1
  %39 = tail call noundef zeroext i1 @_ZN4cvc58internal6theory11quantifiers23TermTupleEnumeratorBase18nextCombinationMaxEv(ptr noundef nonnull align 8 dereferenceable(168) %0)
  br label %_ZN4cvc58internal6theory11quantifiers23TermTupleEnumeratorBase18nextCombinationSumEv.exit

_ZN4cvc58internal6theory11quantifiers23TermTupleEnumeratorBase18nextCombinationSumEv.exit: ; preds = %.thread.i, %.lr.ph58.i, %31, %7, %38
  %40 = phi i1 [ %39, %38 ], [ true, %31 ], [ false, %7 ], [ true, %.lr.ph58.i ], [ false, %.thread.i ]
  ret i1 %40
}